ccopy_reg
_reconstructor
p0
(cmrl_dashboard.global_config
GlobalConfig
p1
c__builtin__
object
p2
Ntp3
Rp4
(dp5
S'joy_type'
p6
S'off'
p7
sS'map_width'
p8
S'100'
p9
sS'map_height'
p10
S'100'
p11
sS'scan_topic'
p12
S'scan'
p13
sS'exp_method'
p14
S'explore_lite'
p15
sS'nav_method'
p16
S'teb'
p17
sS'victim_detection'
p18
I01
sb.